target datalayout = "e-m:e-p270:32:32-p271:32:32-p272:64:64-i64:64-i128:128-f80:128-n8:16:32:64-S128"
target triple = "x86_64-pc-linux-gnu"

@tls13_aes128gcmsha256_id = dso_local constant [2 x i8] c"\13\01", align 1
@.str.396 = private unnamed_addr constant [27 x i8] c"../openssl/apps/s_client.c\00", align 1
@bio_err = external global ptr, align 8
@psk_identity = internal global ptr @.str.539, align 8
@psk_key = external global ptr, align 8
@psksess = internal global ptr null, align 8
@.str.560 = private unnamed_addr constant [42 x i8] c"Could not convert PSK key '%s' to buffer\0A\00", align 1
@.str.564 = private unnamed_addr constant [36 x i8] c"Error finding suitable ciphersuite\0A\00", align 1

; Function Attrs: nounwind uwtable
define internal i32 @psk_use_session_cb(ptr noundef %0, ptr noundef %1, ptr noundef %2, ptr noundef %3, ptr noundef %4) #0 {
  %6 = alloca i32, align 4
  %7 = alloca ptr, align 8
  %8 = alloca ptr, align 8
  %9 = alloca ptr, align 8
  %10 = alloca ptr, align 8
  %11 = alloca ptr, align 8
  %12 = alloca ptr, align 8
  %13 = alloca ptr, align 8
  %14 = alloca i64, align 8
  %15 = alloca ptr, align 8
  %16 = alloca i32, align 4
  store ptr %0, ptr %7, align 8, !tbaa !13
  store ptr %1, ptr %8, align 8, !tbaa !106
  store ptr %2, ptr %9, align 8, !tbaa !8
  store ptr %3, ptr %10, align 8, !tbaa !108
  store ptr %4, ptr %11, align 8, !tbaa !110
  call void @llvm.lifetime.start.p0(i64 8, ptr %12) #10
  store ptr null, ptr %12, align 8, !tbaa !70
  call void @llvm.lifetime.start.p0(i64 8, ptr %13) #10
  store ptr null, ptr %13, align 8, !tbaa !112
  %17 = load ptr, ptr @psksess, align 8, !tbaa !70
  %18 = icmp ne ptr %17, null
  br i1 %18, label %19, label %23

19:                                               ; preds = %5
  %20 = load ptr, ptr @psksess, align 8, !tbaa !70
  %21 = call i32 @SSL_SESSION_up_ref(ptr noundef %20)
  %22 = load ptr, ptr @psksess, align 8, !tbaa !70
  store ptr %22, ptr %12, align 8, !tbaa !70
  br label %67

23:                                               ; preds = %5
  call void @llvm.lifetime.start.p0(i64 8, ptr %14) #10
  call void @llvm.lifetime.start.p0(i64 8, ptr %15) #10
  %24 = load ptr, ptr @psk_key, align 8, !tbaa !29
  %25 = call ptr @OPENSSL_hexstr2buf(ptr noundef %24, ptr noundef %14)
  store ptr %25, ptr %15, align 8, !tbaa !29
  %26 = load ptr, ptr %15, align 8, !tbaa !29
  %27 = icmp eq ptr %26, null
  br i1 %27, label %28, label %32

28:                                               ; preds = %23
  %29 = load ptr, ptr @bio_err, align 8, !tbaa !40
  %30 = load ptr, ptr @psk_key, align 8, !tbaa !29
  %31 = call i32 (ptr, ptr, ...) @BIO_printf(ptr noundef %29, ptr noundef @.str.560, ptr noundef %30)
  store i32 0, ptr %6, align 4
  store i32 1, ptr %16, align 4
  br label %64

32:                                               ; preds = %23
  %33 = load ptr, ptr %7, align 8, !tbaa !13
  %34 = call ptr @SSL_CIPHER_find(ptr noundef %33, ptr noundef @tls13_aes128gcmsha256_id)
  store ptr %34, ptr %13, align 8, !tbaa !112
  %35 = load ptr, ptr %13, align 8, !tbaa !112
  %36 = icmp eq ptr %35, null
  br i1 %36, label %37, label %41

37:                                               ; preds = %32
  %38 = load ptr, ptr @bio_err, align 8, !tbaa !40
  %39 = call i32 (ptr, ptr, ...) @BIO_printf(ptr noundef %38, ptr noundef @.str.564)
  %40 = load ptr, ptr %15, align 8, !tbaa !29
  call void @CRYPTO_free(ptr noundef %40, ptr noundef @.str.396, i32 noundef 227)
  store i32 0, ptr %6, align 4
  store i32 1, ptr %16, align 4
  br label %64

41:                                               ; preds = %32
  %42 = call ptr @SSL_SESSION_new()
  store ptr %42, ptr %12, align 8, !tbaa !70
  %43 = load ptr, ptr %12, align 8, !tbaa !70
  %44 = icmp eq ptr %43, null
  br i1 %44, label %60, label %45

45:                                               ; preds = %41
  %46 = load ptr, ptr %12, align 8, !tbaa !70
  %47 = load ptr, ptr %15, align 8, !tbaa !29
  %48 = load i64, ptr %14, align 8, !tbaa !35
  %49 = call i32 @SSL_SESSION_set1_master_key(ptr noundef %46, ptr noundef %47, i64 noundef %48)
  %50 = icmp ne i32 %49, 0
  br i1 %50, label %51, label %60

51:                                               ; preds = %45
  %52 = load ptr, ptr %12, align 8, !tbaa !70
  %53 = load ptr, ptr %13, align 8, !tbaa !112
  %54 = call i32 @SSL_SESSION_set_cipher(ptr noundef %52, ptr noundef %53)
  %55 = icmp ne i32 %54, 0
  br i1 %55, label %56, label %60

56:                                               ; preds = %51
  %57 = load ptr, ptr %12, align 8, !tbaa !70
  %58 = call i32 @SSL_SESSION_set_protocol_version(ptr noundef %57, i32 noundef 772)
  %59 = icmp ne i32 %58, 0
  br i1 %59, label %62, label %60

60:                                               ; preds = %56, %51, %45, %41
  %61 = load ptr, ptr %15, align 8, !tbaa !29
  call void @CRYPTO_free(ptr noundef %61, ptr noundef @.str.396, i32 noundef 236)
  store i32 2, ptr %16, align 4
  br label %64

62:                                               ; preds = %56
  %63 = load ptr, ptr %15, align 8, !tbaa !29
  call void @CRYPTO_free(ptr noundef %63, ptr noundef @.str.396, i32 noundef 239)
  store i32 0, ptr %16, align 4
  br label %64

64:                                               ; preds = %60, %62, %37, %28
  call void @llvm.lifetime.end.p0(i64 8, ptr %15) #10
  call void @llvm.lifetime.end.p0(i64 8, ptr %14) #10
  %65 = load i32, ptr %16, align 4
  switch i32 %65, label %97 [
    i32 0, label %66
    i32 2, label %95
  ]

66:                                               ; preds = %64
  br label %67

67:                                               ; preds = %66, %19
  %68 = load ptr, ptr %12, align 8, !tbaa !70
  %69 = call ptr @SSL_SESSION_get0_cipher(ptr noundef %68)
  store ptr %69, ptr %13, align 8, !tbaa !112
  %70 = load ptr, ptr %13, align 8, !tbaa !112
  %71 = icmp eq ptr %70, null
  br i1 %71, label %72, label %73

72:                                               ; preds = %67
  br label %95

73:                                               ; preds = %67
  %74 = load ptr, ptr %8, align 8, !tbaa !106
  %75 = icmp ne ptr %74, null
  br i1 %75, label %76, label %86

76:                                               ; preds = %73
  %77 = load ptr, ptr %13, align 8, !tbaa !112
  %78 = call ptr @SSL_CIPHER_get_handshake_digest(ptr noundef %77)
  %79 = load ptr, ptr %8, align 8, !tbaa !106
  %80 = icmp ne ptr %78, %79
  br i1 %80, label %81, label %86

81:                                               ; preds = %76
  %82 = load ptr, ptr %9, align 8, !tbaa !8
  store ptr null, ptr %82, align 8, !tbaa !29
  %83 = load ptr, ptr %10, align 8, !tbaa !108
  store i64 0, ptr %83, align 8, !tbaa !35
  %84 = load ptr, ptr %11, align 8, !tbaa !110
  store ptr null, ptr %84, align 8, !tbaa !70
  %85 = load ptr, ptr %12, align 8, !tbaa !70
  call void @SSL_SESSION_free(ptr noundef %85)
  br label %94

86:                                               ; preds = %76, %73
  %87 = load ptr, ptr %12, align 8, !tbaa !70
  %88 = load ptr, ptr %11, align 8, !tbaa !110
  store ptr %87, ptr %88, align 8, !tbaa !70
  %89 = load ptr, ptr @psk_identity, align 8, !tbaa !29
  %90 = load ptr, ptr %9, align 8, !tbaa !8
  store ptr %89, ptr %90, align 8, !tbaa !29
  %91 = load ptr, ptr @psk_identity, align 8, !tbaa !29
  %92 = call i64 @strlen(ptr noundef %91) #11
  %93 = load ptr, ptr %10, align 8, !tbaa !108
  store i64 %92, ptr %93, align 8, !tbaa !35
  br label %94

94:                                               ; preds = %86, %81
  store i32 1, ptr %6, align 4
  store i32 1, ptr %16, align 4
  br label %97

95:                                               ; preds = %64, %72
  %96 = load ptr, ptr %12, align 8, !tbaa !70
  call void @SSL_SESSION_free(ptr noundef %96)
  store i32 0, ptr %6, align 4
  store i32 1, ptr %16, align 4
  br label %97

97:                                               ; preds = %95, %94, %64
  call void @llvm.lifetime.end.p0(i64 8, ptr %13) #10
  call void @llvm.lifetime.end.p0(i64 8, ptr %12) #10
  %98 = load i32, ptr %6, align 4
  ret i32 %98
}