; Function Attrs: nounwind uwtable
define internal range(i32 0, 2) i32 @psk_use_session_cb(ptr noundef %0, ptr noundef readnone captures(address) %1, ptr noundef writeonly captures(none) %2, ptr noundef writeonly captures(none) %3, ptr noundef writeonly captures(none) %4) #0 {
  %6 = alloca i64, align 8
  %7 = load ptr, ptr @psksess, align 8, !tbaa !41
  %.not = icmp eq ptr %7, null
  br i1 %.not, label %11, label %8

8:                                                ; preds = %5
  %9 = tail call i32 @SSL_SESSION_up_ref(ptr noundef nonnull %7) #15
  %10 = load ptr, ptr @psksess, align 8, !tbaa !41
  br label %36

11:                                               ; preds = %5
  call void @llvm.lifetime.start.p0(i64 8, ptr nonnull %6) #15
  %12 = load ptr, ptr @psk_key, align 8, !tbaa !11
  %13 = call ptr @OPENSSL_hexstr2buf(ptr noundef %12, ptr noundef nonnull %6) #15
  %14 = icmp eq ptr %13, null
  br i1 %14, label %15, label %19

15:                                               ; preds = %11
  %16 = load ptr, ptr @bio_err, align 8, !tbaa !19
  %17 = load ptr, ptr @psk_key, align 8, !tbaa !11
  %18 = call i32 (ptr, ptr, ...) @BIO_printf(ptr noundef %16, ptr noundef nonnull @.str.560, ptr noundef %17) #15
  br label %.thread

19:                                               ; preds = %11
  %20 = call ptr @SSL_CIPHER_find(ptr noundef %0, ptr noundef nonnull @tls13_aes128gcmsha256_id) #15
  %21 = icmp eq ptr %20, null
  br i1 %21, label %22, label %25

22:                                               ; preds = %19
  %23 = load ptr, ptr @bio_err, align 8, !tbaa !19
  %24 = call i32 (ptr, ptr, ...) @BIO_printf(ptr noundef %23, ptr noundef nonnull @.str.564) #15
  call void @CRYPTO_free(ptr noundef nonnull %13, ptr noundef nonnull @.str.396, i32 noundef 227) #15
  br label %.thread

25:                                               ; preds = %19
  %26 = call ptr @SSL_SESSION_new() #15
  %27 = icmp eq ptr %26, null
  br i1 %27, label %35, label %28

28:                                               ; preds = %25
  %29 = load i64, ptr %6, align 8, !tbaa !17
  %30 = call i32 @SSL_SESSION_set1_master_key(ptr noundef nonnull %26, ptr noundef nonnull %13, i64 noundef %29) #15
  %.not36 = icmp eq i32 %30, 0
  br i1 %.not36, label %35, label %31

31:                                               ; preds = %28
  %32 = call i32 @SSL_SESSION_set_cipher(ptr noundef nonnull %26, ptr noundef nonnull %20) #15
  %.not37 = icmp eq i32 %32, 0
  br i1 %.not37, label %35, label %33

33:                                               ; preds = %31
  %34 = call i32 @SSL_SESSION_set_protocol_version(ptr noundef nonnull %26, i32 noundef 772) #15
  %.not38 = icmp eq i32 %34, 0
  br i1 %.not38, label %35, label %.thread43

.thread43:                                        ; preds = %33
  call void @CRYPTO_free(ptr noundef nonnull %13, ptr noundef nonnull @.str.396, i32 noundef 239) #15
  call void @llvm.lifetime.end.p0(i64 8, ptr nonnull %6) #15
  br label %36

.thread:                                          ; preds = %15, %22
  call void @llvm.lifetime.end.p0(i64 8, ptr nonnull %6) #15
  br label %47

35:                                               ; preds = %25, %28, %31, %33
  call void @CRYPTO_free(ptr noundef nonnull %13, ptr noundef nonnull @.str.396, i32 noundef 236) #15
  call void @llvm.lifetime.end.p0(i64 8, ptr nonnull %6) #15
  br label %46

36:                                               ; preds = %.thread43, %8
  %.028 = phi ptr [ %10, %8 ], [ %26, %.thread43 ]
  %37 = call ptr @SSL_SESSION_get0_cipher(ptr noundef %.028) #15
  %38 = icmp eq ptr %37, null
  br i1 %38, label %46, label %39

39:                                               ; preds = %36
  %.not39 = icmp eq ptr %1, null
  br i1 %.not39, label %43, label %40

40:                                               ; preds = %39
  %41 = call ptr @SSL_CIPHER_get_handshake_digest(ptr noundef nonnull %37) #15
  %.not40 = icmp eq ptr %41, %1
  br i1 %.not40, label %43, label %42

42:                                               ; preds = %40
  store ptr null, ptr %2, align 8, !tbaa !11
  store i64 0, ptr %3, align 8, !tbaa !17
  store ptr null, ptr %4, align 8, !tbaa !41
  call void @SSL_SESSION_free(ptr noundef %.028) #15
  br label %47

43:                                               ; preds = %40, %39
  store ptr %.028, ptr %4, align 8, !tbaa !41
  %44 = load ptr, ptr @psk_identity, align 8, !tbaa !11
  store ptr %44, ptr %2, align 8, !tbaa !11
  %45 = call i64 @strlen(ptr noundef nonnull dereferenceable(1) %44) #17
  store i64 %45, ptr %3, align 8, !tbaa !17
  br label %47

46:                                               ; preds = %35, %36
  %.2 = phi ptr [ %.028, %36 ], [ %26, %35 ]
  call void @SSL_SESSION_free(ptr noundef %.2) #15
  br label %47

47:                                               ; preds = %.thread, %42, %43, %46
  %.1 = phi i32 [ 0, %46 ], [ 1, %43 ], [ 1, %42 ], [ 0, %.thread ]
  ret i32 %.1
}